; Function Attrs: mustprogress uwtable
define hidden void @_ZNK4cvc58internal9BitVector6concatERKS1_(ptr dead_on_unwind noalias writable sret(%"class.cvc5::internal::BitVector") align 8 %0, ptr noundef nonnull align 8 dereferenceable(24) %1, ptr noundef nonnull align 8 dereferenceable(24) %2) local_unnamed_addr #3 align 2 personality ptr @__gxx_personality_v0 {
  %4 = alloca %"class.cvc5::internal::Integer", align 8
  %5 = alloca %"class.cvc5::internal::Integer", align 8
  %6 = load i32, ptr %1, align 8, !tbaa !11
  %7 = load i32, ptr %2, align 8, !tbaa !11
  call void @llvm.lifetime.start.p0(i64 16, ptr nonnull %4) #16
  call void @llvm.lifetime.start.p0(i64 16, ptr nonnull %5) #16
  %8 = getelementptr inbounds nuw i8, ptr %1, i64 8
  call void @_ZNK4cvc58internal7Integer14multiplyByPow2Ej(ptr dead_on_unwind nonnull writable sret(%"class.cvc5::internal::Integer") align 8 %5, ptr noundef nonnull align 8 dereferenceable(16) %8, i32 noundef %7)
  %9 = getelementptr inbounds nuw i8, ptr %2, i64 8
  invoke void @_ZNK4cvc58internal7IntegerplERKS1_(ptr dead_on_unwind nonnull writable sret(%"class.cvc5::internal::Integer") align 8 %4, ptr noundef nonnull align 8 dereferenceable(16) %5, ptr noundef nonnull align 8 dereferenceable(16) %9)
          to label %10 unwind label %19

10:                                               ; preds = %3
  %11 = add i32 %7, %6
  store i32 %11, ptr %0, align 8, !tbaa !11
  %12 = getelementptr inbounds nuw i8, ptr %0, i64 8
  invoke void @_ZNK4cvc58internal7Integer9modByPow2Ej(ptr dead_on_unwind nonnull writable sret(%"class.cvc5::internal::Integer") align 8 %12, ptr noundef nonnull align 8 dereferenceable(16) %4, i32 noundef %11)
          to label %_ZN4cvc58internal9BitVectorC2EjRKNS0_7IntegerE.exit unwind label %21

_ZN4cvc58internal9BitVectorC2EjRKNS0_7IntegerE.exit: ; preds = %10
  invoke void @__gmpz_clear(ptr noundef nonnull align 8 dereferenceable(16) %4)
          to label %_ZN4cvc58internal7IntegerD2Ev.exit unwind label %13

13:                                               ; preds = %_ZN4cvc58internal9BitVectorC2EjRKNS0_7IntegerE.exit
  %14 = landingpad { ptr, i32 }
          catch ptr null
  %15 = extractvalue { ptr, i32 } %14, 0
  call void @__clang_call_terminate(ptr %15) #17
  unreachable

_ZN4cvc58internal7IntegerD2Ev.exit:               ; preds = %_ZN4cvc58internal9BitVectorC2EjRKNS0_7IntegerE.exit
  invoke void @__gmpz_clear(ptr noundef nonnull align 8 dereferenceable(16) %5)
          to label %_ZN4cvc58internal7IntegerD2Ev.exit7 unwind label %16

16:                                               ; preds = %_ZN4cvc58internal7IntegerD2Ev.exit
  %17 = landingpad { ptr, i32 }
          catch ptr null
  %18 = extractvalue { ptr, i32 } %17, 0
  call void @__clang_call_terminate(ptr %18) #17
  unreachable

_ZN4cvc58internal7IntegerD2Ev.exit7:              ; preds = %_ZN4cvc58internal7IntegerD2Ev.exit
  call void @llvm.lifetime.end.p0(i64 16, ptr nonnull %5) #16
  call void @llvm.lifetime.end.p0(i64 16, ptr nonnull %4) #16
  ret void

19:                                               ; preds = %3
  %20 = landingpad { ptr, i32 }
          cleanup
  br label %_ZN4cvc58internal7IntegerD2Ev.exit8

21:                                               ; preds = %10
  %22 = landingpad { ptr, i32 }
          cleanup
  invoke void @__gmpz_clear(ptr noundef nonnull align 8 dereferenceable(16) %4)
          to label %_ZN4cvc58internal7IntegerD2Ev.exit8 unwind label %23

23:                                               ; preds = %21
  %24 = landingpad { ptr, i32 }
          catch ptr null
  %25 = extractvalue { ptr, i32 } %24, 0
  call void @__clang_call_terminate(ptr %25) #17
  unreachable

_ZN4cvc58internal7IntegerD2Ev.exit8:              ; preds = %21, %19
  %.pn = phi { ptr, i32 } [ %20, %19 ], [ %22, %21 ]
  invoke void @__gmpz_clear(ptr noundef nonnull align 8 dereferenceable(16) %5)
          to label %_ZN4cvc58internal7IntegerD2Ev.exit9 unwind label %26

26:                                               ; preds = %_ZN4cvc58internal7IntegerD2Ev.exit8
  %27 = landingpad { ptr, i32 }
          catch ptr null
  %28 = extractvalue { ptr, i32 } %27, 0
  call void @__clang_call_terminate(ptr %28) #17
  unreachable

_ZN4cvc58internal7IntegerD2Ev.exit9:              ; preds = %_ZN4cvc58internal7IntegerD2Ev.exit8
  call void @llvm.lifetime.end.p0(i64 16, ptr nonnull %5) #16
  call void @llvm.lifetime.end.p0(i64 16, ptr nonnull %4) #16
  resume { ptr, i32 } %.pn
}